target datalayout = "e-m:e-p270:32:32-p271:32:32-p272:64:64-i64:64-i128:128-f80:128-n8:16:32:64-S128"
target triple = "x86_64-pc-linux-gnu"

%struct.ossl_param_st = type { ptr, i32, ptr, i64, i64 }

; Function Attrs: nounwind uwtable
define dso_local ptr @fake_rsa_key_params(i32 noundef %0) #0 {
  %2 = alloca ptr, align 8
  %3 = alloca i32, align 4
  %4 = alloca [9 x %struct.ossl_param_st], align 16
  %5 = alloca [3 x %struct.ossl_param_st], align 16
  store i32 %0, ptr %3, align 4, !tbaa !4
  %6 = load i32, ptr %3, align 4, !tbaa !4
  %7 = icmp ne i32 %6, 0
  br i1 %7, label %8, label %11

8:                                                ; preds = %1
  call void @llvm.lifetime.start.p0(i64 360, ptr %4) #6
  call void @llvm.memcpy.p0.p0.i64(ptr align 16 %4, ptr align 16 @__const.fake_rsa_key_params.params, i64 360, i1 false)
  %9 = getelementptr inbounds [9 x %struct.ossl_param_st], ptr %4, i64 0, i64 0
  %10 = call ptr @OSSL_PARAM_dup(ptr noundef %9)
  store ptr %10, ptr %2, align 8
  call void @llvm.lifetime.end.p0(i64 360, ptr %4) #6
  br label %14

11:                                               ; preds = %1
  call void @llvm.lifetime.start.p0(i64 120, ptr %5) #6
  call void @llvm.memcpy.p0.p0.i64(ptr align 16 %5, ptr align 16 @__const.fake_rsa_key_params.params.8, i64 120, i1 false)
  %12 = getelementptr inbounds [3 x %struct.ossl_param_st], ptr %5, i64 0, i64 0
  %13 = call ptr @OSSL_PARAM_dup(ptr noundef %12)
  store ptr %13, ptr %2, align 8
  call void @llvm.lifetime.end.p0(i64 120, ptr %5) #6
  br label %14

14:                                               ; preds = %11, %8
  %15 = load ptr, ptr %2, align 8
  ret ptr %15
}