; Function Attrs: nounwind uwtable
define dso_local ptr @fake_rsa_key_params(i32 noundef %0) local_unnamed_addr #1 {
  %2 = alloca [9 x %struct.ossl_param_st], align 16
  %3 = alloca [3 x %struct.ossl_param_st], align 16
  %.not = icmp eq i32 %0, 0
  br i1 %.not, label %6, label %4

4:                                                ; preds = %1
  call void @llvm.lifetime.start.p0(i64 360, ptr nonnull %2) #12
  call void @llvm.memcpy.p0.p0.i64(ptr noundef nonnull align 16 dereferenceable(360) %2, ptr noundef nonnull align 16 dereferenceable(360) @__const.fake_rsa_key_params.params, i64 360, i1 false)
  %5 = call ptr @OSSL_PARAM_dup(ptr noundef nonnull %2) #12
  call void @llvm.lifetime.end.p0(i64 360, ptr nonnull %2) #12
  br label %8

6:                                                ; preds = %1
  call void @llvm.lifetime.start.p0(i64 120, ptr nonnull %3) #12
  call void @llvm.memcpy.p0.p0.i64(ptr noundef nonnull align 16 dereferenceable(120) %3, ptr noundef nonnull align 16 dereferenceable(120) @__const.fake_rsa_key_params.params.8, i64 120, i1 false)
  %7 = call ptr @OSSL_PARAM_dup(ptr noundef nonnull %3) #12
  call void @llvm.lifetime.end.p0(i64 120, ptr nonnull %3) #12
  br label %8

8:                                                ; preds = %6, %4
  %.0 = phi ptr [ %5, %4 ], [ %7, %6 ]
  ret ptr %.0
}